; Function Attrs: nounwind uwtable
define range(i32 0, 2) i32 @test_char_ne(ptr noundef %0, i32 noundef %1, ptr noundef %2, ptr noundef %3, i8 noundef signext %4, i8 noundef signext %5) local_unnamed_addr #0 {
  %.not = icmp eq i8 %4, %5
  br i1 %.not, label %7, label %9

7:                                                ; preds = %6
  %8 = sext i8 %4 to i32
  tail call void (ptr, ptr, i32, ptr, ptr, ptr, ptr, ptr, ...) @test_fail_message(ptr poison, ptr noundef %0, i32 noundef %1, ptr noundef nonnull @.str.21, ptr noundef %2, ptr noundef %3, ptr noundef nonnull @.str.14, ptr noundef nonnull @.str.22, i32 noundef %8, i32 noundef %8)
  br label %9

9:                                                ; preds = %6, %7
  %.0 = phi i32 [ 0, %7 ], [ 1, %6 ]
  ret i32 %.0
}